target datalayout = "e-m:e-p270:32:32-p271:32:32-p272:64:64-i64:64-i128:128-f80:128-n8:16:32:64-S128"
target triple = "x86_64-pc-linux-gnu"

; Function Attrs: alwaysinline nounwind willreturn memory(none) uwtable
define internal i32 @av_clip_uintp2_c(i32 noundef %0, i32 noundef %1) #3 {
  %3 = alloca i32, align 4
  %4 = alloca i32, align 4
  %5 = alloca i32, align 4
  store i32 %0, ptr %4, align 4, !tbaa !9
  store i32 %1, ptr %5, align 4, !tbaa !9
  %6 = load i32, ptr %4, align 4, !tbaa !9
  %7 = load i32, ptr %5, align 4, !tbaa !9
  %8 = shl i32 1, %7
  %9 = sub i32 %8, 1
  %10 = xor i32 %9, -1
  %11 = and i32 %6, %10
  %12 = icmp ne i32 %11, 0
  br i1 %12, label %13, label %21

13:                                               ; preds = %2
  %14 = load i32, ptr %4, align 4, !tbaa !9
  %15 = xor i32 %14, -1
  %16 = ashr i32 %15, 31
  %17 = load i32, ptr %5, align 4, !tbaa !9
  %18 = shl i32 1, %17
  %19 = sub i32 %18, 1
  %20 = and i32 %16, %19
  store i32 %20, ptr %3, align 4
  br label %23

21:                                               ; preds = %2
  %22 = load i32, ptr %4, align 4, !tbaa !9
  store i32 %22, ptr %3, align 4
  br label %23

23:                                               ; preds = %21, %13
  %24 = load i32, ptr %3, align 4
  ret i32 %24
}

; Function Attrs: nounwind uwtable
define internal void @put_uni_luma_hv_12(ptr noundef %0, i64 noundef %1, ptr noundef %2, i64 noundef %3, i32 noundef %4, ptr noundef %5, ptr noundef %6, i32 noundef %7) #0 {
  %9 = alloca ptr, align 8
  %10 = alloca i64, align 8
  %11 = alloca ptr, align 8
  %12 = alloca i64, align 8
  %13 = alloca i32, align 4
  %14 = alloca ptr, align 8
  %15 = alloca ptr, align 8
  %16 = alloca i32, align 4
  %17 = alloca [17280 x i16], align 16
  %18 = alloca ptr, align 8
  %19 = alloca ptr, align 8
  %20 = alloca ptr, align 8
  %21 = alloca i64, align 8
  %22 = alloca i64, align 8
  %23 = alloca ptr, align 8
  %24 = alloca i32, align 4
  %25 = alloca i32, align 4
  %26 = alloca i32, align 4
  %27 = alloca i32, align 4
  %28 = alloca i32, align 4
  %29 = alloca i32, align 4
  %30 = alloca i32, align 4
  %31 = alloca i32, align 4
  store ptr %0, ptr %9, align 8, !tbaa !144
  store i64 %1, ptr %10, align 8, !tbaa !146
  store ptr %2, ptr %11, align 8, !tbaa !144
  store i64 %3, ptr %12, align 8, !tbaa !146
  store i32 %4, ptr %13, align 4, !tbaa !9
  store ptr %5, ptr %14, align 8, !tbaa !144
  store ptr %6, ptr %15, align 8, !tbaa !144
  store i32 %7, ptr %16, align 4, !tbaa !9
  call void @llvm.lifetime.start.p0(i64 34560, ptr %17) #8
  call void @llvm.lifetime.start.p0(i64 8, ptr %18) #8
  %32 = getelementptr inbounds [17280 x i16], ptr %17, i64 0, i64 0
  store ptr %32, ptr %18, align 8, !tbaa !142
  call void @llvm.lifetime.start.p0(i64 8, ptr %19) #8
  %33 = load ptr, ptr %11, align 8, !tbaa !144
  store ptr %33, ptr %19, align 8, !tbaa !142
  call void @llvm.lifetime.start.p0(i64 8, ptr %20) #8
  %34 = load ptr, ptr %9, align 8, !tbaa !144
  store ptr %34, ptr %20, align 8, !tbaa !142
  call void @llvm.lifetime.start.p0(i64 8, ptr %21) #8
  %35 = load i64, ptr %10, align 8, !tbaa !146
  %36 = udiv i64 %35, 2
  store i64 %36, ptr %21, align 8, !tbaa !146
  call void @llvm.lifetime.start.p0(i64 8, ptr %22) #8
  %37 = load i64, ptr %12, align 8, !tbaa !146
  %38 = udiv i64 %37, 2
  store i64 %38, ptr %22, align 8, !tbaa !146
  call void @llvm.lifetime.start.p0(i64 8, ptr %23) #8
  %39 = load ptr, ptr %14, align 8, !tbaa !144
  store ptr %39, ptr %23, align 8, !tbaa !144
  call void @llvm.lifetime.start.p0(i64 4, ptr %24) #8
  store i32 2, ptr %24, align 4, !tbaa !9
  call void @llvm.lifetime.start.p0(i64 4, ptr %25) #8
  store i32 2, ptr %25, align 4, !tbaa !9
  %40 = load i64, ptr %22, align 8, !tbaa !146
  %41 = mul nsw i64 3, %40
  %42 = load ptr, ptr %19, align 8, !tbaa !142
  %43 = sub i64 0, %41
  %44 = getelementptr inbounds i16, ptr %42, i64 %43
  store ptr %44, ptr %19, align 8, !tbaa !142
  call void @llvm.lifetime.start.p0(i64 4, ptr %26) #8
  store i32 0, ptr %26, align 4, !tbaa !9
  br label %45

45:                                               ; preds = %175, %8
  %46 = load i32, ptr %26, align 4, !tbaa !9
  %47 = load i32, ptr %13, align 4, !tbaa !9
  %48 = add nsw i32 %47, 7
  %49 = icmp slt i32 %46, %48
  br i1 %49, label %51, label %50

50:                                               ; preds = %45
  store i32 2, ptr %27, align 4
  call void @llvm.lifetime.end.p0(i64 4, ptr %26) #8
  br label %178

51:                                               ; preds = %45
  call void @llvm.lifetime.start.p0(i64 4, ptr %28) #8
  store i32 0, ptr %28, align 4, !tbaa !9
  br label %52

52:                                               ; preds = %166, %51
  %53 = load i32, ptr %28, align 4, !tbaa !9
  %54 = load i32, ptr %16, align 4, !tbaa !9
  %55 = icmp slt i32 %53, %54
  br i1 %55, label %57, label %56

56:                                               ; preds = %52
  store i32 5, ptr %27, align 4
  call void @llvm.lifetime.end.p0(i64 4, ptr %28) #8
  br label %169

57:                                               ; preds = %52
  %58 = load ptr, ptr %23, align 8, !tbaa !144
  %59 = getelementptr inbounds i8, ptr %58, i64 0
  %60 = load i8, ptr %59, align 1, !tbaa !152
  %61 = sext i8 %60 to i32
  %62 = load ptr, ptr %19, align 8, !tbaa !142
  %63 = load i32, ptr %28, align 4, !tbaa !9
  %64 = sub nsw i32 %63, 3
  %65 = sext i32 %64 to i64
  %66 = getelementptr inbounds i16, ptr %62, i64 %65
  %67 = load i16, ptr %66, align 2, !tbaa !148
  %68 = zext i16 %67 to i32
  %69 = mul nsw i32 %61, %68
  %70 = load ptr, ptr %23, align 8, !tbaa !144
  %71 = getelementptr inbounds i8, ptr %70, i64 1
  %72 = load i8, ptr %71, align 1, !tbaa !152
  %73 = sext i8 %72 to i32
  %74 = load ptr, ptr %19, align 8, !tbaa !142
  %75 = load i32, ptr %28, align 4, !tbaa !9
  %76 = sub nsw i32 %75, 2
  %77 = sext i32 %76 to i64
  %78 = getelementptr inbounds i16, ptr %74, i64 %77
  %79 = load i16, ptr %78, align 2, !tbaa !148
  %80 = zext i16 %79 to i32
  %81 = mul nsw i32 %73, %80
  %82 = add nsw i32 %69, %81
  %83 = load ptr, ptr %23, align 8, !tbaa !144
  %84 = getelementptr inbounds i8, ptr %83, i64 2
  %85 = load i8, ptr %84, align 1, !tbaa !152
  %86 = sext i8 %85 to i32
  %87 = load ptr, ptr %19, align 8, !tbaa !142
  %88 = load i32, ptr %28, align 4, !tbaa !9
  %89 = sub nsw i32 %88, 1
  %90 = sext i32 %89 to i64
  %91 = getelementptr inbounds i16, ptr %87, i64 %90
  %92 = load i16, ptr %91, align 2, !tbaa !148
  %93 = zext i16 %92 to i32
  %94 = mul nsw i32 %86, %93
  %95 = add nsw i32 %82, %94
  %96 = load ptr, ptr %23, align 8, !tbaa !144
  %97 = getelementptr inbounds i8, ptr %96, i64 3
  %98 = load i8, ptr %97, align 1, !tbaa !152
  %99 = sext i8 %98 to i32
  %100 = load ptr, ptr %19, align 8, !tbaa !142
  %101 = load i32, ptr %28, align 4, !tbaa !9
  %102 = sext i32 %101 to i64
  %103 = getelementptr inbounds i16, ptr %100, i64 %102
  %104 = load i16, ptr %103, align 2, !tbaa !148
  %105 = zext i16 %104 to i32
  %106 = mul nsw i32 %99, %105
  %107 = add nsw i32 %95, %106
  %108 = load ptr, ptr %23, align 8, !tbaa !144
  %109 = getelementptr inbounds i8, ptr %108, i64 4
  %110 = load i8, ptr %109, align 1, !tbaa !152
  %111 = sext i8 %110 to i32
  %112 = load ptr, ptr %19, align 8, !tbaa !142
  %113 = load i32, ptr %28, align 4, !tbaa !9
  %114 = add nsw i32 %113, 1
  %115 = sext i32 %114 to i64
  %116 = getelementptr inbounds i16, ptr %112, i64 %115
  %117 = load i16, ptr %116, align 2, !tbaa !148
  %118 = zext i16 %117 to i32
  %119 = mul nsw i32 %111, %118
  %120 = add nsw i32 %107, %119
  %121 = load ptr, ptr %23, align 8, !tbaa !144
  %122 = getelementptr inbounds i8, ptr %121, i64 5
  %123 = load i8, ptr %122, align 1, !tbaa !152
  %124 = sext i8 %123 to i32
  %125 = load ptr, ptr %19, align 8, !tbaa !142
  %126 = load i32, ptr %28, align 4, !tbaa !9
  %127 = add nsw i32 %126, 2
  %128 = sext i32 %127 to i64
  %129 = getelementptr inbounds i16, ptr %125, i64 %128
  %130 = load i16, ptr %129, align 2, !tbaa !148
  %131 = zext i16 %130 to i32
  %132 = mul nsw i32 %124, %131
  %133 = add nsw i32 %120, %132
  %134 = load ptr, ptr %23, align 8, !tbaa !144
  %135 = getelementptr inbounds i8, ptr %134, i64 6
  %136 = load i8, ptr %135, align 1, !tbaa !152
  %137 = sext i8 %136 to i32
  %138 = load ptr, ptr %19, align 8, !tbaa !142
  %139 = load i32, ptr %28, align 4, !tbaa !9
  %140 = add nsw i32 %139, 3
  %141 = sext i32 %140 to i64
  %142 = getelementptr inbounds i16, ptr %138, i64 %141
  %143 = load i16, ptr %142, align 2, !tbaa !148
  %144 = zext i16 %143 to i32
  %145 = mul nsw i32 %137, %144
  %146 = add nsw i32 %133, %145
  %147 = load ptr, ptr %23, align 8, !tbaa !144
  %148 = getelementptr inbounds i8, ptr %147, i64 7
  %149 = load i8, ptr %148, align 1, !tbaa !152
  %150 = sext i8 %149 to i32
  %151 = load ptr, ptr %19, align 8, !tbaa !142
  %152 = load i32, ptr %28, align 4, !tbaa !9
  %153 = add nsw i32 %152, 4
  %154 = sext i32 %153 to i64
  %155 = getelementptr inbounds i16, ptr %151, i64 %154
  %156 = load i16, ptr %155, align 2, !tbaa !148
  %157 = zext i16 %156 to i32
  %158 = mul nsw i32 %150, %157
  %159 = add nsw i32 %146, %158
  %160 = ashr i32 %159, 4
  %161 = trunc i32 %160 to i16
  %162 = load ptr, ptr %18, align 8, !tbaa !142
  %163 = load i32, ptr %28, align 4, !tbaa !9
  %164 = sext i32 %163 to i64
  %165 = getelementptr inbounds i16, ptr %162, i64 %164
  store i16 %161, ptr %165, align 2, !tbaa !148
  br label %166

166:                                              ; preds = %57
  %167 = load i32, ptr %28, align 4, !tbaa !9
  %168 = add nsw i32 %167, 1
  store i32 %168, ptr %28, align 4, !tbaa !9
  br label %52, !llvm.loop !166

169:                                              ; preds = %56
  %170 = load i64, ptr %22, align 8, !tbaa !146
  %171 = load ptr, ptr %19, align 8, !tbaa !142
  %172 = getelementptr inbounds i16, ptr %171, i64 %170
  store ptr %172, ptr %19, align 8, !tbaa !142
  %173 = load ptr, ptr %18, align 8, !tbaa !142
  %174 = getelementptr inbounds i16, ptr %173, i64 128
  store ptr %174, ptr %18, align 8, !tbaa !142
  br label %175

175:                                              ; preds = %169
  %176 = load i32, ptr %26, align 4, !tbaa !9
  %177 = add nsw i32 %176, 1
  store i32 %177, ptr %26, align 4, !tbaa !9
  br label %45, !llvm.loop !167

178:                                              ; preds = %50
  %179 = getelementptr inbounds [17280 x i16], ptr %17, i64 0, i64 0
  %180 = getelementptr inbounds i16, ptr %179, i64 384
  store ptr %180, ptr %18, align 8, !tbaa !142
  %181 = load ptr, ptr %15, align 8, !tbaa !144
  store ptr %181, ptr %23, align 8, !tbaa !144
  call void @llvm.lifetime.start.p0(i64 4, ptr %29) #8
  store i32 0, ptr %29, align 4, !tbaa !9
  br label %182

182:                                              ; preds = %315, %178
  %183 = load i32, ptr %29, align 4, !tbaa !9
  %184 = load i32, ptr %13, align 4, !tbaa !9
  %185 = icmp slt i32 %183, %184
  br i1 %185, label %187, label %186

186:                                              ; preds = %182
  store i32 8, ptr %27, align 4
  call void @llvm.lifetime.end.p0(i64 4, ptr %29) #8
  br label %318

187:                                              ; preds = %182
  call void @llvm.lifetime.start.p0(i64 4, ptr %30) #8
  store i32 0, ptr %30, align 4, !tbaa !9
  br label %188

188:                                              ; preds = %306, %187
  %189 = load i32, ptr %30, align 4, !tbaa !9
  %190 = load i32, ptr %16, align 4, !tbaa !9
  %191 = icmp slt i32 %189, %190
  br i1 %191, label %193, label %192

192:                                              ; preds = %188
  store i32 11, ptr %27, align 4
  call void @llvm.lifetime.end.p0(i64 4, ptr %30) #8
  br label %309

193:                                              ; preds = %188
  call void @llvm.lifetime.start.p0(i64 4, ptr %31) #8
  %194 = load ptr, ptr %23, align 8, !tbaa !144
  %195 = getelementptr inbounds i8, ptr %194, i64 0
  %196 = load i8, ptr %195, align 1, !tbaa !152
  %197 = sext i8 %196 to i32
  %198 = load ptr, ptr %18, align 8, !tbaa !142
  %199 = load i32, ptr %30, align 4, !tbaa !9
  %200 = sub nsw i32 %199, 384
  %201 = sext i32 %200 to i64
  %202 = getelementptr inbounds i16, ptr %198, i64 %201
  %203 = load i16, ptr %202, align 2, !tbaa !148
  %204 = sext i16 %203 to i32
  %205 = mul nsw i32 %197, %204
  %206 = load ptr, ptr %23, align 8, !tbaa !144
  %207 = getelementptr inbounds i8, ptr %206, i64 1
  %208 = load i8, ptr %207, align 1, !tbaa !152
  %209 = sext i8 %208 to i32
  %210 = load ptr, ptr %18, align 8, !tbaa !142
  %211 = load i32, ptr %30, align 4, !tbaa !9
  %212 = sub nsw i32 %211, 256
  %213 = sext i32 %212 to i64
  %214 = getelementptr inbounds i16, ptr %210, i64 %213
  %215 = load i16, ptr %214, align 2, !tbaa !148
  %216 = sext i16 %215 to i32
  %217 = mul nsw i32 %209, %216
  %218 = add nsw i32 %205, %217
  %219 = load ptr, ptr %23, align 8, !tbaa !144
  %220 = getelementptr inbounds i8, ptr %219, i64 2
  %221 = load i8, ptr %220, align 1, !tbaa !152
  %222 = sext i8 %221 to i32
  %223 = load ptr, ptr %18, align 8, !tbaa !142
  %224 = load i32, ptr %30, align 4, !tbaa !9
  %225 = sub nsw i32 %224, 128
  %226 = sext i32 %225 to i64
  %227 = getelementptr inbounds i16, ptr %223, i64 %226
  %228 = load i16, ptr %227, align 2, !tbaa !148
  %229 = sext i16 %228 to i32
  %230 = mul nsw i32 %222, %229
  %231 = add nsw i32 %218, %230
  %232 = load ptr, ptr %23, align 8, !tbaa !144
  %233 = getelementptr inbounds i8, ptr %232, i64 3
  %234 = load i8, ptr %233, align 1, !tbaa !152
  %235 = sext i8 %234 to i32
  %236 = load ptr, ptr %18, align 8, !tbaa !142
  %237 = load i32, ptr %30, align 4, !tbaa !9
  %238 = sext i32 %237 to i64
  %239 = getelementptr inbounds i16, ptr %236, i64 %238
  %240 = load i16, ptr %239, align 2, !tbaa !148
  %241 = sext i16 %240 to i32
  %242 = mul nsw i32 %235, %241
  %243 = add nsw i32 %231, %242
  %244 = load ptr, ptr %23, align 8, !tbaa !144
  %245 = getelementptr inbounds i8, ptr %244, i64 4
  %246 = load i8, ptr %245, align 1, !tbaa !152
  %247 = sext i8 %246 to i32
  %248 = load ptr, ptr %18, align 8, !tbaa !142
  %249 = load i32, ptr %30, align 4, !tbaa !9
  %250 = add nsw i32 %249, 128
  %251 = sext i32 %250 to i64
  %252 = getelementptr inbounds i16, ptr %248, i64 %251
  %253 = load i16, ptr %252, align 2, !tbaa !148
  %254 = sext i16 %253 to i32
  %255 = mul nsw i32 %247, %254
  %256 = add nsw i32 %243, %255
  %257 = load ptr, ptr %23, align 8, !tbaa !144
  %258 = getelementptr inbounds i8, ptr %257, i64 5
  %259 = load i8, ptr %258, align 1, !tbaa !152
  %260 = sext i8 %259 to i32
  %261 = load ptr, ptr %18, align 8, !tbaa !142
  %262 = load i32, ptr %30, align 4, !tbaa !9
  %263 = add nsw i32 %262, 256
  %264 = sext i32 %263 to i64
  %265 = getelementptr inbounds i16, ptr %261, i64 %264
  %266 = load i16, ptr %265, align 2, !tbaa !148
  %267 = sext i16 %266 to i32
  %268 = mul nsw i32 %260, %267
  %269 = add nsw i32 %256, %268
  %270 = load ptr, ptr %23, align 8, !tbaa !144
  %271 = getelementptr inbounds i8, ptr %270, i64 6
  %272 = load i8, ptr %271, align 1, !tbaa !152
  %273 = sext i8 %272 to i32
  %274 = load ptr, ptr %18, align 8, !tbaa !142
  %275 = load i32, ptr %30, align 4, !tbaa !9
  %276 = add nsw i32 %275, 384
  %277 = sext i32 %276 to i64
  %278 = getelementptr inbounds i16, ptr %274, i64 %277
  %279 = load i16, ptr %278, align 2, !tbaa !148
  %280 = sext i16 %279 to i32
  %281 = mul nsw i32 %273, %280
  %282 = add nsw i32 %269, %281
  %283 = load ptr, ptr %23, align 8, !tbaa !144
  %284 = getelementptr inbounds i8, ptr %283, i64 7
  %285 = load i8, ptr %284, align 1, !tbaa !152
  %286 = sext i8 %285 to i32
  %287 = load ptr, ptr %18, align 8, !tbaa !142
  %288 = load i32, ptr %30, align 4, !tbaa !9
  %289 = add nsw i32 %288, 512
  %290 = sext i32 %289 to i64
  %291 = getelementptr inbounds i16, ptr %287, i64 %290
  %292 = load i16, ptr %291, align 2, !tbaa !148
  %293 = sext i16 %292 to i32
  %294 = mul nsw i32 %286, %293
  %295 = add nsw i32 %282, %294
  %296 = ashr i32 %295, 6
  store i32 %296, ptr %31, align 4, !tbaa !9
  %297 = load i32, ptr %31, align 4, !tbaa !9
  %298 = add nsw i32 %297, 2
  %299 = ashr i32 %298, 2
  %300 = call i32 @av_clip_uintp2_c(i32 noundef %299, i32 noundef 12) #9
  %301 = trunc i32 %300 to i16
  %302 = load ptr, ptr %20, align 8, !tbaa !142
  %303 = load i32, ptr %30, align 4, !tbaa !9
  %304 = sext i32 %303 to i64
  %305 = getelementptr inbounds i16, ptr %302, i64 %304
  store i16 %301, ptr %305, align 2, !tbaa !148
  call void @llvm.lifetime.end.p0(i64 4, ptr %31) #8
  br label %306

306:                                              ; preds = %193
  %307 = load i32, ptr %30, align 4, !tbaa !9
  %308 = add nsw i32 %307, 1
  store i32 %308, ptr %30, align 4, !tbaa !9
  br label %188, !llvm.loop !168

309:                                              ; preds = %192
  %310 = load ptr, ptr %18, align 8, !tbaa !142
  %311 = getelementptr inbounds i16, ptr %310, i64 128
  store ptr %311, ptr %18, align 8, !tbaa !142
  %312 = load i64, ptr %21, align 8, !tbaa !146
  %313 = load ptr, ptr %20, align 8, !tbaa !142
  %314 = getelementptr inbounds i16, ptr %313, i64 %312
  store ptr %314, ptr %20, align 8, !tbaa !142
  br label %315

315:                                              ; preds = %309
  %316 = load i32, ptr %29, align 4, !tbaa !9
  %317 = add nsw i32 %316, 1
  store i32 %317, ptr %29, align 4, !tbaa !9
  br label %182, !llvm.loop !169

318:                                              ; preds = %186
  call void @llvm.lifetime.end.p0(i64 4, ptr %25) #8
  call void @llvm.lifetime.end.p0(i64 4, ptr %24) #8
  call void @llvm.lifetime.end.p0(i64 8, ptr %23) #8
  call void @llvm.lifetime.end.p0(i64 8, ptr %22) #8
  call void @llvm.lifetime.end.p0(i64 8, ptr %21) #8
  call void @llvm.lifetime.end.p0(i64 8, ptr %20) #8
  call void @llvm.lifetime.end.p0(i64 8, ptr %19) #8
  call void @llvm.lifetime.end.p0(i64 8, ptr %18) #8
  call void @llvm.lifetime.end.p0(i64 34560, ptr %17) #8
  ret void
}