; Function Attrs: nofree norecurse nosync nounwind memory(argmem: readwrite) uwtable
define internal void @put_uni_luma_hv_12(ptr noundef writeonly captures(none) %0, i64 noundef %1, ptr noundef readonly captures(none) %2, i64 noundef %3, i32 noundef %4, ptr noundef readonly captures(none) %5, ptr noundef readonly captures(none) %6, i32 noundef %7) #2 {
  %9 = alloca [17280 x i16], align 16
  call void @llvm.lifetime.start.p0(i64 34560, ptr nonnull %9) #14
  %10 = lshr i64 %1, 1
  %11 = lshr i64 %3, 1
  %.idx = mul nsw i64 %11, -6
  %12 = getelementptr inbounds i8, ptr %2, i64 %.idx
  %13 = add i32 %4, 7
  %14 = icmp sgt i32 %4, -7
  br i1 %14, label %.preheader84.lr.ph, label %._crit_edge94

.preheader84.lr.ph:                               ; preds = %8
  %15 = icmp sgt i32 %7, 0
  br i1 %15, label %.preheader84.lr.ph.split.us, label %._crit_edge89

.preheader84.lr.ph.split.us:                      ; preds = %.preheader84.lr.ph
  %16 = getelementptr inbounds nuw i8, ptr %5, i64 7
  %17 = getelementptr inbounds nuw i8, ptr %5, i64 6
  %18 = getelementptr inbounds nuw i8, ptr %5, i64 5
  %19 = getelementptr inbounds nuw i8, ptr %5, i64 4
  %20 = getelementptr inbounds nuw i8, ptr %5, i64 3
  %21 = getelementptr inbounds nuw i8, ptr %5, i64 2
  %22 = getelementptr inbounds nuw i8, ptr %5, i64 1
  %23 = load i8, ptr %5, align 1, !tbaa !128
  %24 = sext i8 %23 to i32
  %25 = load i8, ptr %22, align 1, !tbaa !128
  %26 = sext i8 %25 to i32
  %27 = load i8, ptr %21, align 1, !tbaa !128
  %28 = sext i8 %27 to i32
  %29 = load i8, ptr %20, align 1, !tbaa !128
  %30 = sext i8 %29 to i32
  %31 = load i8, ptr %19, align 1, !tbaa !128
  %32 = sext i8 %31 to i32
  %33 = load i8, ptr %18, align 1, !tbaa !128
  %34 = sext i8 %33 to i32
  %35 = load i8, ptr %17, align 1, !tbaa !128
  %36 = sext i8 %35 to i32
  %37 = load i8, ptr %16, align 1, !tbaa !128
  %38 = sext i8 %37 to i32
  %smax = tail call i32 @llvm.smax.i32(i32 %13, i32 1)
  %wide.trip.count = zext nneg i32 %7 to i64
  br label %.preheader84.us

.preheader84.us:                                  ; preds = %._crit_edge.us, %.preheader84.lr.ph.split.us
  %.088.us = phi ptr [ %9, %.preheader84.lr.ph.split.us ], [ %83, %._crit_edge.us ]
  %.08187.us = phi i32 [ 0, %.preheader84.lr.ph.split.us ], [ %84, %._crit_edge.us ]
  %.08286.us = phi ptr [ %12, %.preheader84.lr.ph.split.us ], [ %82, %._crit_edge.us ]
  %.pre = load i16, ptr %.08286.us, align 2, !tbaa !124
  br label %39

39:                                               ; preds = %.preheader84.us, %39
  %40 = phi i16 [ %.pre, %.preheader84.us ], [ %60, %39 ]
  %indvars.iv = phi i64 [ 0, %.preheader84.us ], [ %indvars.iv.next, %39 ]
  %41 = getelementptr i16, ptr %.08286.us, i64 %indvars.iv
  %42 = getelementptr i8, ptr %41, i64 -6
  %43 = load i16, ptr %42, align 2, !tbaa !124
  %44 = zext i16 %43 to i32
  %45 = mul nsw i32 %44, %24
  %46 = getelementptr i8, ptr %41, i64 -4
  %47 = load i16, ptr %46, align 2, !tbaa !124
  %48 = zext i16 %47 to i32
  %49 = mul nsw i32 %48, %26
  %50 = add nsw i32 %49, %45
  %51 = getelementptr i8, ptr %41, i64 -2
  %52 = load i16, ptr %51, align 2, !tbaa !124
  %53 = zext i16 %52 to i32
  %54 = mul nsw i32 %53, %28
  %55 = add nsw i32 %50, %54
  %56 = zext i16 %40 to i32
  %57 = mul nsw i32 %56, %30
  %58 = add nsw i32 %55, %57
  %indvars.iv.next = add nuw nsw i64 %indvars.iv, 1
  %59 = getelementptr inbounds nuw i16, ptr %.08286.us, i64 %indvars.iv.next
  %60 = load i16, ptr %59, align 2, !tbaa !124
  %61 = zext i16 %60 to i32
  %62 = mul nsw i32 %61, %32
  %63 = add nsw i32 %58, %62
  %64 = getelementptr inbounds nuw i8, ptr %41, i64 4
  %65 = load i16, ptr %64, align 2, !tbaa !124
  %66 = zext i16 %65 to i32
  %67 = mul nsw i32 %66, %34
  %68 = add nsw i32 %63, %67
  %69 = getelementptr inbounds nuw i8, ptr %41, i64 6
  %70 = load i16, ptr %69, align 2, !tbaa !124
  %71 = zext i16 %70 to i32
  %72 = mul nsw i32 %71, %36
  %73 = add nsw i32 %68, %72
  %74 = getelementptr inbounds nuw i8, ptr %41, i64 8
  %75 = load i16, ptr %74, align 2, !tbaa !124
  %76 = zext i16 %75 to i32
  %77 = mul nsw i32 %76, %38
  %78 = add nsw i32 %73, %77
  %79 = lshr i32 %78, 4
  %80 = trunc i32 %79 to i16
  %81 = getelementptr inbounds nuw i16, ptr %.088.us, i64 %indvars.iv
  store i16 %80, ptr %81, align 2, !tbaa !124
  %exitcond.not = icmp eq i64 %indvars.iv.next, %wide.trip.count
  br i1 %exitcond.not, label %._crit_edge.us, label %39, !llvm.loop !142

._crit_edge.us:                                   ; preds = %39
  %82 = getelementptr inbounds nuw i16, ptr %.08286.us, i64 %11
  %83 = getelementptr inbounds nuw i8, ptr %.088.us, i64 256
  %84 = add nuw nsw i32 %.08187.us, 1
  %exitcond99.not = icmp eq i32 %84, %smax
  br i1 %exitcond99.not, label %._crit_edge89, label %.preheader84.us, !llvm.loop !143

._crit_edge89:                                    ; preds = %._crit_edge.us, %.preheader84.lr.ph
  %85 = icmp sgt i32 %4, 0
  br i1 %85, label %.preheader.lr.ph, label %._crit_edge94

.preheader.lr.ph:                                 ; preds = %._crit_edge89
  %86 = icmp sgt i32 %7, 0
  %87 = getelementptr inbounds nuw i8, ptr %6, i64 1
  %88 = getelementptr inbounds nuw i8, ptr %6, i64 2
  %89 = getelementptr inbounds nuw i8, ptr %6, i64 3
  %90 = getelementptr inbounds nuw i8, ptr %6, i64 4
  %91 = getelementptr inbounds nuw i8, ptr %6, i64 5
  %92 = getelementptr inbounds nuw i8, ptr %6, i64 6
  %93 = getelementptr inbounds nuw i8, ptr %6, i64 7
  br i1 %86, label %.preheader.us.preheader, label %._crit_edge94

.preheader.us.preheader:                          ; preds = %.preheader.lr.ph
  %94 = getelementptr inbounds nuw i8, ptr %9, i64 768
  %wide.trip.count103 = zext nneg i32 %7 to i64
  br label %.preheader.us

.preheader.us:                                    ; preds = %.preheader.us.preheader, %._crit_edge.us95
  %.193.us = phi ptr [ %158, %._crit_edge.us95 ], [ %94, %.preheader.us.preheader ]
  %.07992.us = phi i32 [ %160, %._crit_edge.us95 ], [ 0, %.preheader.us.preheader ]
  %.08391.us = phi ptr [ %159, %._crit_edge.us95 ], [ %0, %.preheader.us.preheader ]
  br label %95

95:                                               ; preds = %.preheader.us, %95
  %indvars.iv100 = phi i64 [ 0, %.preheader.us ], [ %indvars.iv.next101, %95 ]
  %96 = load i8, ptr %6, align 1, !tbaa !128
  %97 = sext i8 %96 to i32
  %98 = getelementptr i16, ptr %.193.us, i64 %indvars.iv100
  %99 = getelementptr i8, ptr %98, i64 -768
  %100 = load i16, ptr %99, align 2, !tbaa !124
  %101 = sext i16 %100 to i32
  %102 = mul nsw i32 %101, %97
  %103 = load i8, ptr %87, align 1, !tbaa !128
  %104 = sext i8 %103 to i32
  %105 = getelementptr i8, ptr %98, i64 -512
  %106 = load i16, ptr %105, align 2, !tbaa !124
  %107 = sext i16 %106 to i32
  %108 = mul nsw i32 %107, %104
  %109 = add nsw i32 %108, %102
  %110 = load i8, ptr %88, align 1, !tbaa !128
  %111 = sext i8 %110 to i32
  %112 = getelementptr i8, ptr %98, i64 -256
  %113 = load i16, ptr %112, align 2, !tbaa !124
  %114 = sext i16 %113 to i32
  %115 = mul nsw i32 %114, %111
  %116 = add nsw i32 %109, %115
  %117 = load i8, ptr %89, align 1, !tbaa !128
  %118 = sext i8 %117 to i32
  %119 = load i16, ptr %98, align 2, !tbaa !124
  %120 = sext i16 %119 to i32
  %121 = mul nsw i32 %120, %118
  %122 = add nsw i32 %116, %121
  %123 = load i8, ptr %90, align 1, !tbaa !128
  %124 = sext i8 %123 to i32
  %125 = getelementptr inbounds nuw i8, ptr %98, i64 256
  %126 = load i16, ptr %125, align 2, !tbaa !124
  %127 = sext i16 %126 to i32
  %128 = mul nsw i32 %127, %124
  %129 = add nsw i32 %122, %128
  %130 = load i8, ptr %91, align 1, !tbaa !128
  %131 = sext i8 %130 to i32
  %132 = getelementptr inbounds nuw i8, ptr %98, i64 512
  %133 = load i16, ptr %132, align 2, !tbaa !124
  %134 = sext i16 %133 to i32
  %135 = mul nsw i32 %134, %131
  %136 = add nsw i32 %129, %135
  %137 = load i8, ptr %92, align 1, !tbaa !128
  %138 = sext i8 %137 to i32
  %139 = getelementptr inbounds nuw i8, ptr %98, i64 768
  %140 = load i16, ptr %139, align 2, !tbaa !124
  %141 = sext i16 %140 to i32
  %142 = mul nsw i32 %141, %138
  %143 = add nsw i32 %136, %142
  %144 = load i8, ptr %93, align 1, !tbaa !128
  %145 = sext i8 %144 to i32
  %146 = getelementptr inbounds nuw i8, ptr %98, i64 1024
  %147 = load i16, ptr %146, align 2, !tbaa !124
  %148 = sext i16 %147 to i32
  %149 = mul nsw i32 %148, %145
  %150 = add nsw i32 %143, %149
  %151 = ashr i32 %150, 6
  %152 = add nsw i32 %151, 2
  %153 = ashr i32 %152, 2
  %154 = tail call i32 @llvm.smax.i32(i32 %153, i32 0)
  %155 = tail call i32 @llvm.umin.i32(i32 %154, i32 4095)
  %156 = trunc nuw nsw i32 %155 to i16
  %157 = getelementptr inbounds nuw i16, ptr %.08391.us, i64 %indvars.iv100
  store i16 %156, ptr %157, align 2, !tbaa !124
  %indvars.iv.next101 = add nuw nsw i64 %indvars.iv100, 1
  %exitcond104.not = icmp eq i64 %indvars.iv.next101, %wide.trip.count103
  br i1 %exitcond104.not, label %._crit_edge.us95, label %95, !llvm.loop !144

._crit_edge.us95:                                 ; preds = %95
  %158 = getelementptr inbounds nuw i8, ptr %.193.us, i64 256
  %159 = getelementptr inbounds nuw i16, ptr %.08391.us, i64 %10
  %160 = add nuw nsw i32 %.07992.us, 1
  %exitcond105.not = icmp eq i32 %160, %4
  br i1 %exitcond105.not, label %._crit_edge94, label %.preheader.us, !llvm.loop !145

._crit_edge94:                                    ; preds = %._crit_edge.us95, %8, %.preheader.lr.ph, %._crit_edge89
  call void @llvm.lifetime.end.p0(i64 34560, ptr nonnull %9) #14
  ret void
}